; Function Attrs: mustprogress uwtable
define hidden void @_ZNK4cvc58internal20FloatingPointLiteral8minTotalERKS1_b(ptr dead_on_unwind noalias writable sret(%"class.cvc5::internal::FloatingPointLiteral") align 8 %0, ptr noundef nonnull align 8 dereferenceable(64) %1, ptr noundef nonnull align 8 dereferenceable(64) %2, i1 noundef zeroext %3) local_unnamed_addr #4 align 2 personality ptr @__gxx_personality_v0 {
  %5 = alloca i8, align 1
  %6 = alloca %"class.symfpu::unpackedFloat", align 8
  %7 = getelementptr inbounds nuw i8, ptr %1, i64 8
  %8 = getelementptr inbounds nuw i8, ptr %2, i64 8
  call void @llvm.lifetime.start.p0(i64 1, ptr nonnull %5) #16, !noalias !86
  %9 = load i8, ptr %8, align 8, !tbaa !13, !range !21, !noalias !86, !noundef !22
  %10 = trunc nuw i8 %9 to i1
  br i1 %10, label %_ZN6symfpu3minIN4cvc58internal13symfpuLiteral6traitsEEENS_13unpackedFloatIT_EERKNS6_3fptERKS7_SC_RKNS6_4propE.exit, label %11

11:                                               ; preds = %4
  %12 = tail call noundef zeroext i1 @_ZN6symfpu8orderingIN4cvc58internal13symfpuLiteral6traitsEEENT_4propERKNS5_3fptERKNS_13unpackedFloatIS5_EESD_S6_(ptr noundef nonnull align 4 dereferenceable(8) %1, ptr noundef nonnull align 8 dereferenceable(56) %7, ptr noundef nonnull align 8 dereferenceable(56) %8, i1 noundef zeroext %3), !noalias !86
  %13 = zext i1 %12 to i8
  br label %_ZN6symfpu3minIN4cvc58internal13symfpuLiteral6traitsEEENS_13unpackedFloatIT_EERKNS6_3fptERKS7_SC_RKNS6_4propE.exit

_ZN6symfpu3minIN4cvc58internal13symfpuLiteral6traitsEEENS_13unpackedFloatIT_EERKNS6_3fptERKS7_SC_RKNS6_4propE.exit: ; preds = %4, %11
  %14 = phi i8 [ 1, %4 ], [ %13, %11 ]
  store i8 %14, ptr %5, align 1, !tbaa !13, !noalias !86
  call void @_ZN6symfpu3iteIbNS_13unpackedFloatIN4cvc58internal13symfpuLiteral6traitsEEEE5iteOpERKbRKS6_SB_(ptr dead_on_unwind nonnull writable sret(%"class.symfpu::unpackedFloat") align 8 %6, ptr noundef nonnull align 1 dereferenceable(1) %5, ptr noundef nonnull align 8 dereferenceable(56) %7, ptr noundef nonnull align 8 dereferenceable(56) %8)
  call void @llvm.lifetime.end.p0(i64 1, ptr nonnull %5) #16, !noalias !86
  invoke void @_ZN4cvc58internal17FloatingPointSizeC1ERKS1_(ptr noundef nonnull align 8 dereferenceable(64) %0, ptr noundef nonnull align 4 dereferenceable(8) %1)
          to label %.noexc unwind label %47

.noexc:                                           ; preds = %_ZN6symfpu3minIN4cvc58internal13symfpuLiteral6traitsEEENS_13unpackedFloatIT_EERKNS6_3fptERKS7_SC_RKNS6_4propE.exit
  %15 = getelementptr inbounds nuw i8, ptr %0, i64 8
  %16 = load i8, ptr %6, align 8, !tbaa !15, !range !21, !noundef !22
  store i8 %16, ptr %15, align 8, !tbaa !15
  %17 = getelementptr inbounds nuw i8, ptr %0, i64 9
  %18 = getelementptr inbounds nuw i8, ptr %6, i64 1
  %19 = load i8, ptr %18, align 1, !tbaa !19, !range !21, !noundef !22
  store i8 %19, ptr %17, align 1, !tbaa !19
  %20 = getelementptr inbounds nuw i8, ptr %0, i64 10
  %21 = getelementptr inbounds nuw i8, ptr %6, i64 2
  %22 = load i8, ptr %21, align 2, !tbaa !20, !range !21, !noundef !22
  store i8 %22, ptr %20, align 2, !tbaa !20
  %23 = getelementptr inbounds nuw i8, ptr %0, i64 11
  %24 = getelementptr inbounds nuw i8, ptr %6, i64 3
  %25 = load i8, ptr %24, align 1, !tbaa !23, !range !21, !noundef !22
  store i8 %25, ptr %23, align 1, !tbaa !23
  %26 = getelementptr inbounds nuw i8, ptr %0, i64 16
  %27 = getelementptr inbounds nuw i8, ptr %6, i64 8
  %28 = load i32, ptr %27, align 8, !tbaa !9
  store i32 %28, ptr %26, align 8, !tbaa !9
  %29 = getelementptr inbounds nuw i8, ptr %0, i64 24
  %30 = getelementptr inbounds nuw i8, ptr %6, i64 16
  invoke void @__gmpz_init_set(ptr noundef nonnull align 8 dereferenceable(16) %29, ptr noundef nonnull align 8 dereferenceable(16) %30)
          to label %.noexc3 unwind label %47

.noexc3:                                          ; preds = %.noexc
  %31 = getelementptr inbounds nuw i8, ptr %0, i64 40
  %32 = getelementptr inbounds nuw i8, ptr %6, i64 32
  %33 = load i32, ptr %32, align 8, !tbaa !9
  store i32 %33, ptr %31, align 8, !tbaa !9
  %34 = getelementptr inbounds nuw i8, ptr %0, i64 48
  %35 = getelementptr inbounds nuw i8, ptr %6, i64 40
  invoke void @__gmpz_init_set(ptr noundef nonnull align 8 dereferenceable(16) %34, ptr noundef nonnull align 8 dereferenceable(16) %35)
          to label %_ZN4cvc58internal20FloatingPointLiteralC2ERKNS0_17FloatingPointSizeEN6symfpu13unpackedFloatINS0_13symfpuLiteral6traitsEEE.exit unwind label %36

36:                                               ; preds = %.noexc3
  %37 = landingpad { ptr, i32 }
          cleanup
  invoke void @__gmpz_clear(ptr noundef nonnull align 8 dereferenceable(16) %29)
          to label %.body unwind label %38

38:                                               ; preds = %36
  %39 = landingpad { ptr, i32 }
          catch ptr null
  %40 = extractvalue { ptr, i32 } %39, 0
  call void @__clang_call_terminate(ptr %40) #17
  unreachable

_ZN4cvc58internal20FloatingPointLiteralC2ERKNS0_17FloatingPointSizeEN6symfpu13unpackedFloatINS0_13symfpuLiteral6traitsEEE.exit: ; preds = %.noexc3
  invoke void @__gmpz_clear(ptr noundef nonnull align 8 dereferenceable(16) %35)
          to label %_ZN4cvc58internal9BitVectorD2Ev.exit.i unwind label %41

41:                                               ; preds = %_ZN4cvc58internal20FloatingPointLiteralC2ERKNS0_17FloatingPointSizeEN6symfpu13unpackedFloatINS0_13symfpuLiteral6traitsEEE.exit
  %42 = landingpad { ptr, i32 }
          catch ptr null
  %43 = extractvalue { ptr, i32 } %42, 0
  call void @__clang_call_terminate(ptr %43) #17
  unreachable

_ZN4cvc58internal9BitVectorD2Ev.exit.i:           ; preds = %_ZN4cvc58internal20FloatingPointLiteralC2ERKNS0_17FloatingPointSizeEN6symfpu13unpackedFloatINS0_13symfpuLiteral6traitsEEE.exit
  invoke void @__gmpz_clear(ptr noundef nonnull align 8 dereferenceable(16) %30)
          to label %_ZN6symfpu13unpackedFloatIN4cvc58internal13symfpuLiteral6traitsEED2Ev.exit unwind label %44

44:                                               ; preds = %_ZN4cvc58internal9BitVectorD2Ev.exit.i
  %45 = landingpad { ptr, i32 }
          catch ptr null
  %46 = extractvalue { ptr, i32 } %45, 0
  call void @__clang_call_terminate(ptr %46) #17
  unreachable

_ZN6symfpu13unpackedFloatIN4cvc58internal13symfpuLiteral6traitsEED2Ev.exit: ; preds = %_ZN4cvc58internal9BitVectorD2Ev.exit.i
  ret void

47:                                               ; preds = %.noexc, %_ZN6symfpu3minIN4cvc58internal13symfpuLiteral6traitsEEENS_13unpackedFloatIT_EERKNS6_3fptERKS7_SC_RKNS6_4propE.exit
  %48 = landingpad { ptr, i32 }
          cleanup
  br label %.body

.body:                                            ; preds = %36, %47
  %eh.lpad-body = phi { ptr, i32 } [ %48, %47 ], [ %37, %36 ]
  call void @_ZN6symfpu13unpackedFloatIN4cvc58internal13symfpuLiteral6traitsEED2Ev(ptr noundef nonnull align 8 dereferenceable(56) %6) #16
  resume { ptr, i32 } %eh.lpad-body
}